target datalayout = "e-m:e-p270:32:32-p271:32:32-p272:64:64-i64:64-i128:128-f80:128-n8:16:32:64-S128"
target triple = "x86_64-pc-linux-gnu"

%struct.AVFilterContext = type { ptr, ptr, ptr, ptr, ptr, i32, ptr, ptr, i32, ptr, ptr, i32, i32, ptr, ptr, ptr, ptr, i32, ptr, i32, i32 }
%struct.ShowSpectrumContext = type { ptr, i32, i32, ptr, %struct.AVRational, %struct.AVRational, ptr, ptr, i32, i32, i32, i32, i32, i32, i32, i32, i32, float, float, i32, i32, i32, i32, ptr, ptr, ptr, ptr, i32, ptr, ptr, ptr, ptr, ptr, ptr, i32, i32, i32, double, float, float, i32, ptr, ptr, i64, i64, i64, i32, i32, i32, i32, i32, float, float, float, float, i64, ptr, i32, float, ptr, i32, i32 }
%struct.AVRational = type { i32, i32 }

@.str.11 = private unnamed_addr constant [30 x i8] c"Assertion %s failed at %s:%d\0A\00", align 1
@.str.12 = private unnamed_addr constant [2 x i8] c"0\00", align 1
@.str.13 = private unnamed_addr constant [31 x i8] c"libavfilter/avf_showspectrum.c\00", align 1

; Function Attrs: alwaysinline nounwind willreturn memory(none) uwtable
define internal float @av_clipf_c(float noundef %0, float noundef %1, float noundef %2) #12 {
  %4 = alloca float, align 4
  %5 = alloca float, align 4
  %6 = alloca float, align 4
  store float %0, ptr %4, align 4, !tbaa !126
  store float %1, ptr %5, align 4, !tbaa !126
  store float %2, ptr %6, align 4, !tbaa !126
  %7 = load float, ptr %4, align 4, !tbaa !126
  %8 = load float, ptr %5, align 4, !tbaa !126
  %9 = fcmp nsz ogt float %7, %8
  br i1 %9, label %10, label %12

10:                                               ; preds = %3
  %11 = load float, ptr %4, align 4, !tbaa !126
  br label %14

12:                                               ; preds = %3
  %13 = load float, ptr %5, align 4, !tbaa !126
  br label %14

14:                                               ; preds = %12, %10
  %15 = phi nsz float [ %11, %10 ], [ %13, %12 ]
  %16 = load float, ptr %6, align 4, !tbaa !126
  %17 = fcmp nsz ogt float %15, %16
  br i1 %17, label %18, label %20

18:                                               ; preds = %14
  %19 = load float, ptr %6, align 4, !tbaa !126
  br label %30

20:                                               ; preds = %14
  %21 = load float, ptr %4, align 4, !tbaa !126
  %22 = load float, ptr %5, align 4, !tbaa !126
  %23 = fcmp nsz ogt float %21, %22
  br i1 %23, label %24, label %26

24:                                               ; preds = %20
  %25 = load float, ptr %4, align 4, !tbaa !126
  br label %28

26:                                               ; preds = %20
  %27 = load float, ptr %5, align 4, !tbaa !126
  br label %28

28:                                               ; preds = %26, %24
  %29 = phi nsz float [ %25, %24 ], [ %27, %26 ]
  br label %30

30:                                               ; preds = %28, %18
  %31 = phi nsz float [ %19, %18 ], [ %29, %28 ]
  ret float %31
}

; Function Attrs: nounwind uwtable
define internal float @get_scale(ptr noundef %0, i32 noundef %1, float noundef %2) #1 {
  %4 = alloca ptr, align 8
  %5 = alloca i32, align 4
  %6 = alloca float, align 4
  %7 = alloca ptr, align 8
  %8 = alloca float, align 4
  %9 = alloca float, align 4
  store ptr %0, ptr %4, align 8, !tbaa !4
  store i32 %1, ptr %5, align 4, !tbaa !36
  store float %2, ptr %6, align 4, !tbaa !126
  call void @llvm.lifetime.start.p0(i64 8, ptr %7) #13
  %10 = load ptr, ptr %4, align 8, !tbaa !4
  %11 = getelementptr inbounds nuw %struct.AVFilterContext, ptr %10, i32 0, i32 9
  %12 = load ptr, ptr %11, align 8, !tbaa !9
  store ptr %12, ptr %7, align 8, !tbaa !22
  call void @llvm.lifetime.start.p0(i64 4, ptr %8) #13
  %13 = load ptr, ptr %7, align 8, !tbaa !22
  %14 = getelementptr inbounds nuw %struct.ShowSpectrumContext, ptr %13, i32 0, i32 53
  %15 = load float, ptr %14, align 4, !tbaa !100
  store float %15, ptr %8, align 4, !tbaa !126
  call void @llvm.lifetime.start.p0(i64 4, ptr %9) #13
  %16 = load ptr, ptr %7, align 8, !tbaa !22
  %17 = getelementptr inbounds nuw %struct.ShowSpectrumContext, ptr %16, i32 0, i32 54
  %18 = load float, ptr %17, align 8, !tbaa !98
  store float %18, ptr %9, align 4, !tbaa !126
  %19 = load float, ptr %6, align 4, !tbaa !126
  %20 = load float, ptr %8, align 4, !tbaa !126
  %21 = load float, ptr %9, align 4, !tbaa !126
  %22 = call nsz float @av_clipf_c(float noundef %19, float noundef %20, float noundef %21) #14
  store float %22, ptr %6, align 4, !tbaa !126
  %23 = load i32, ptr %5, align 4, !tbaa !36
  %24 = icmp ne i32 %23, 3
  br i1 %24, label %25, label %33

25:                                               ; preds = %3
  %26 = load float, ptr %6, align 4, !tbaa !126
  %27 = load float, ptr %8, align 4, !tbaa !126
  %28 = fsub nsz float %26, %27
  %29 = load float, ptr %9, align 4, !tbaa !126
  %30 = load float, ptr %8, align 4, !tbaa !126
  %31 = fsub nsz float %29, %30
  %32 = fdiv nsz float %28, %31
  store float %32, ptr %6, align 4, !tbaa !126
  br label %33

33:                                               ; preds = %25, %3
  %34 = load i32, ptr %5, align 4, !tbaa !36
  switch i32 %34, label %63 [
    i32 0, label %67
    i32 1, label %35
    i32 2, label %38
    i32 4, label %41
    i32 5, label %45
    i32 3, label %48
  ]

35:                                               ; preds = %33
  %36 = load float, ptr %6, align 4, !tbaa !126
  %37 = call nsz float @llvm.sqrt.f32(float %36)
  store float %37, ptr %6, align 4, !tbaa !126
  br label %67

38:                                               ; preds = %33
  %39 = load float, ptr %6, align 4, !tbaa !126
  %40 = call nsz float @cbrtf(float noundef %39) #14
  store float %40, ptr %6, align 4, !tbaa !126
  br label %67

41:                                               ; preds = %33
  %42 = load float, ptr %6, align 4, !tbaa !126
  %43 = call nsz float @llvm.sqrt.f32(float %42)
  %44 = call nsz float @llvm.sqrt.f32(float %43)
  store float %44, ptr %6, align 4, !tbaa !126
  br label %67

45:                                               ; preds = %33
  %46 = load float, ptr %6, align 4, !tbaa !126
  %47 = call nsz float @llvm.pow.f32(float %46, float 0x3FC99999A0000000)
  store float %47, ptr %6, align 4, !tbaa !126
  br label %67

48:                                               ; preds = %33
  %49 = load ptr, ptr %7, align 8, !tbaa !22
  %50 = getelementptr inbounds nuw %struct.ShowSpectrumContext, ptr %49, i32 0, i32 51
  %51 = load float, ptr %50, align 4, !tbaa !99
  %52 = load ptr, ptr %7, align 8, !tbaa !22
  %53 = getelementptr inbounds nuw %struct.ShowSpectrumContext, ptr %52, i32 0, i32 52
  %54 = load float, ptr %53, align 8, !tbaa !97
  %55 = fsub nsz float %51, %54
  %56 = load float, ptr %6, align 4, !tbaa !126
  %57 = call nsz float @llvm.log10.f32(float %56)
  %58 = call nsz float @llvm.fmuladd.f32(float %57, float 2.000000e+01, float %55)
  %59 = load ptr, ptr %7, align 8, !tbaa !22
  %60 = getelementptr inbounds nuw %struct.ShowSpectrumContext, ptr %59, i32 0, i32 51
  %61 = load float, ptr %60, align 4, !tbaa !99
  %62 = fdiv nsz float %58, %61
  store float %62, ptr %6, align 4, !tbaa !126
  br label %67

63:                                               ; preds = %33
  br label %64

64:                                               ; preds = %63
  call void (ptr, i32, ptr, ...) @av_log(ptr noundef null, i32 noundef 0, ptr noundef @.str.11, ptr noundef @.str.12, ptr noundef @.str.13, i32 noundef 732)
  call void @abort() #16
  unreachable

65:                                               ; No predecessors!
  br label %66

66:                                               ; preds = %65
  br label %67

67:                                               ; preds = %66, %48, %45, %41, %38, %35, %33
  %68 = load float, ptr %6, align 4, !tbaa !126
  call void @llvm.lifetime.end.p0(i64 4, ptr %9) #13
  call void @llvm.lifetime.end.p0(i64 4, ptr %8) #13
  call void @llvm.lifetime.end.p0(i64 8, ptr %7) #13
  ret float %68
}

; Function Attrs: nounwind uwtable
define internal float @get_value(ptr noundef %0, i32 noundef %1, i32 noundef %2) #1 {
  %4 = alloca ptr, align 8
  %5 = alloca i32, align 4
  %6 = alloca i32, align 4
  %7 = alloca ptr, align 8
  %8 = alloca ptr, align 8
  %9 = alloca ptr, align 8
  %10 = alloca float, align 4
  store ptr %0, ptr %4, align 8, !tbaa !4
  store i32 %1, ptr %5, align 4, !tbaa !36
  store i32 %2, ptr %6, align 4, !tbaa !36
  call void @llvm.lifetime.start.p0(i64 8, ptr %7) #13
  %11 = load ptr, ptr %4, align 8, !tbaa !4
  %12 = getelementptr inbounds nuw %struct.AVFilterContext, ptr %11, i32 0, i32 9
  %13 = load ptr, ptr %12, align 8, !tbaa !9
  store ptr %13, ptr %7, align 8, !tbaa !22
  call void @llvm.lifetime.start.p0(i64 8, ptr %8) #13
  %14 = load ptr, ptr %7, align 8, !tbaa !22
  %15 = getelementptr inbounds nuw %struct.ShowSpectrumContext, ptr %14, i32 0, i32 32
  %16 = load ptr, ptr %15, align 8, !tbaa !50
  %17 = load i32, ptr %5, align 4, !tbaa !36
  %18 = sext i32 %17 to i64
  %19 = getelementptr inbounds ptr, ptr %16, i64 %18
  %20 = load ptr, ptr %19, align 8, !tbaa !128
  store ptr %20, ptr %8, align 8, !tbaa !128
  call void @llvm.lifetime.start.p0(i64 8, ptr %9) #13
  %21 = load ptr, ptr %7, align 8, !tbaa !22
  %22 = getelementptr inbounds nuw %struct.ShowSpectrumContext, ptr %21, i32 0, i32 33
  %23 = load ptr, ptr %22, align 8, !tbaa !52
  %24 = load i32, ptr %5, align 4, !tbaa !36
  %25 = sext i32 %24 to i64
  %26 = getelementptr inbounds ptr, ptr %23, i64 %25
  %27 = load ptr, ptr %26, align 8, !tbaa !128
  store ptr %27, ptr %9, align 8, !tbaa !128
  call void @llvm.lifetime.start.p0(i64 4, ptr %10) #13
  %28 = load ptr, ptr %7, align 8, !tbaa !22
  %29 = getelementptr inbounds nuw %struct.ShowSpectrumContext, ptr %28, i32 0, i32 21
  %30 = load i32, ptr %29, align 4, !tbaa !70
  switch i32 %30, label %43 [
    i32 0, label %31
    i32 2, label %37
    i32 1, label %37
  ]

31:                                               ; preds = %3
  %32 = load ptr, ptr %8, align 8, !tbaa !128
  %33 = load i32, ptr %6, align 4, !tbaa !36
  %34 = sext i32 %33 to i64
  %35 = getelementptr inbounds float, ptr %32, i64 %34
  %36 = load float, ptr %35, align 4, !tbaa !126
  store float %36, ptr %10, align 4, !tbaa !126
  br label %47

37:                                               ; preds = %3, %3
  %38 = load ptr, ptr %9, align 8, !tbaa !128
  %39 = load i32, ptr %6, align 4, !tbaa !36
  %40 = sext i32 %39 to i64
  %41 = getelementptr inbounds float, ptr %38, i64 %40
  %42 = load float, ptr %41, align 4, !tbaa !126
  store float %42, ptr %10, align 4, !tbaa !126
  br label %47

43:                                               ; preds = %3
  br label %44

44:                                               ; preds = %43
  call void (ptr, i32, ptr, ...) @av_log(ptr noundef null, i32 noundef 0, ptr noundef @.str.11, ptr noundef @.str.12, ptr noundef @.str.13, i32 noundef 992)
  call void @abort() #16
  unreachable

45:                                               ; No predecessors!
  br label %46

46:                                               ; preds = %45
  br label %47

47:                                               ; preds = %46, %37, %31
  %48 = load ptr, ptr %4, align 8, !tbaa !4
  %49 = load ptr, ptr %7, align 8, !tbaa !22
  %50 = getelementptr inbounds nuw %struct.ShowSpectrumContext, ptr %49, i32 0, i32 15
  %51 = load i32, ptr %50, align 4, !tbaa !196
  %52 = load float, ptr %10, align 4, !tbaa !126
  %53 = call nsz float @get_scale(ptr noundef %48, i32 noundef %51, float noundef %52)
  %54 = call nsz float @av_clipf_c(float noundef %53, float noundef 0.000000e+00, float noundef 1.000000e+00) #14
  call void @llvm.lifetime.end.p0(i64 4, ptr %10) #13
  call void @llvm.lifetime.end.p0(i64 8, ptr %9) #13
  call void @llvm.lifetime.end.p0(i64 8, ptr %8) #13
  call void @llvm.lifetime.end.p0(i64 8, ptr %7) #13
  ret float %54
}