; Function Attrs: nounwind uwtable
define internal fastcc float @get_value(ptr readonly captures(none) %.72.val, i32 noundef %0, i32 noundef %1) unnamed_addr #1 {
  %3 = getelementptr inbounds nuw i8, ptr %.72.val, i64 108
  %4 = load i32, ptr %3, align 4, !tbaa !61
  %5 = icmp ult i32 %4, 3
  br i1 %5, label %switch.lookup, label %6

6:                                                ; preds = %2
  tail call void (ptr, i32, ptr, ...) @av_log(ptr noundef null, i32 noundef 0, ptr noundef nonnull @.str.11, ptr noundef nonnull @.str.12, ptr noundef nonnull @.str.13, i32 noundef 992) #14
  tail call void @abort() #17
  unreachable

switch.lookup:                                    ; preds = %2
  %7 = sext i32 %0 to i64
  %8 = zext nneg i32 %4 to i64
  %switch.gep = getelementptr inbounds nuw [3 x i64], ptr @switch.table.get_value, i64 0, i64 %8
  %switch.load = load i64, ptr %switch.gep, align 8
  %9 = getelementptr inbounds nuw i8, ptr %.72.val, i64 %switch.load
  %10 = load ptr, ptr %9, align 8, !tbaa !199
  %11 = getelementptr inbounds ptr, ptr %10, i64 %7
  %12 = load ptr, ptr %11, align 8, !tbaa !117
  %13 = sext i32 %1 to i64
  %14 = getelementptr inbounds float, ptr %12, i64 %13
  %.0 = load float, ptr %14, align 4, !tbaa !114
  %15 = getelementptr inbounds nuw i8, ptr %.72.val, i64 84
  %16 = load i32, ptr %15, align 4, !tbaa !196
  %17 = getelementptr inbounds nuw i8, ptr %.72.val, i64 316
  %18 = load float, ptr %17, align 4, !tbaa !91
  %19 = getelementptr inbounds nuw i8, ptr %.72.val, i64 320
  %20 = load float, ptr %19, align 8, !tbaa !89
  %21 = fcmp nsz ogt float %.0, %18
  %22 = select nsz i1 %21, float %.0, float %18
  %23 = fcmp nsz ogt float %22, %20
  %..i.i = select nsz i1 %23, float %20, float %22
  %.not.i = icmp eq i32 %16, 3
  %24 = fsub nsz float %..i.i, %18
  %25 = fsub nsz float %20, %18
  %26 = fdiv nsz float %24, %25
  %.0.i = select nsz i1 %.not.i, float %..i.i, float %26
  switch i32 %16, label %45 [
    i32 0, label %get_scale.exit
    i32 1, label %27
    i32 2, label %29
    i32 4, label %31
    i32 5, label %34
    i32 3, label %36
  ]

27:                                               ; preds = %switch.lookup
  %28 = tail call nsz float @llvm.sqrt.f32(float %26)
  br label %get_scale.exit

29:                                               ; preds = %switch.lookup
  %30 = tail call nsz float @cbrtf(float noundef %26) #15
  br label %get_scale.exit

31:                                               ; preds = %switch.lookup
  %32 = tail call nsz float @llvm.sqrt.f32(float %26)
  %33 = tail call nsz float @llvm.sqrt.f32(float %32)
  br label %get_scale.exit

34:                                               ; preds = %switch.lookup
  %35 = tail call nsz float @llvm.pow.f32(float %26, float 0x3FC99999A0000000)
  br label %get_scale.exit

36:                                               ; preds = %switch.lookup
  %37 = getelementptr inbounds nuw i8, ptr %.72.val, i64 308
  %38 = load float, ptr %37, align 4, !tbaa !90
  %39 = getelementptr inbounds nuw i8, ptr %.72.val, i64 312
  %40 = load float, ptr %39, align 8, !tbaa !88
  %41 = fsub nsz float %38, %40
  %42 = tail call nsz float @llvm.log10.f32(float %..i.i)
  %43 = tail call nsz float @llvm.fmuladd.f32(float %42, float 2.000000e+01, float %41)
  %44 = fdiv nsz float %43, %38
  br label %get_scale.exit

45:                                               ; preds = %switch.lookup
  tail call void (ptr, i32, ptr, ...) @av_log(ptr noundef null, i32 noundef 0, ptr noundef nonnull @.str.11, ptr noundef nonnull @.str.12, ptr noundef nonnull @.str.13, i32 noundef 732) #14
  tail call void @abort() #17
  unreachable

get_scale.exit:                                   ; preds = %switch.lookup, %27, %29, %31, %34, %36
  %.1.i = phi nsz float [ %44, %36 ], [ %35, %34 ], [ %33, %31 ], [ %30, %29 ], [ %28, %27 ], [ %.0.i, %switch.lookup ]
  %46 = fcmp nsz ogt float %.1.i, 0.000000e+00
  %47 = select nsz i1 %46, float %.1.i, float 0.000000e+00
  %48 = fcmp nsz ogt float %47, 1.000000e+00
  %..i = select nsz i1 %48, float 1.000000e+00, float %47
  ret float %..i
}